target datalayout = "e-m:e-p270:32:32-p271:32:32-p272:64:64-i64:64-i128:128-f80:128-n8:16:32:64-S128"
target triple = "x86_64-pc-linux-gnu"

@stbir__pixel_channels = global [17 x i8] c"\01\02\03\03\04\04\04\04\04\02\02\04\04\04\04\02\02", align 16

; Function Attrs: nounwind uwtable
define i32 @stbir__check_output_stuff(ptr noundef %0, ptr noundef %1, ptr noundef %2, i32 noundef %3, i32 noundef %4, i32 noundef %5, i32 noundef %6, i32 noundef %7) #3 {
  %9 = alloca i32, align 4
  %10 = alloca ptr, align 8
  %11 = alloca ptr, align 8
  %12 = alloca ptr, align 8
  %13 = alloca i32, align 4
  %14 = alloca i32, align 4
  %15 = alloca i32, align 4
  %16 = alloca i32, align 4
  %17 = alloca i32, align 4
  %18 = alloca i64, align 8
  %19 = alloca i32, align 4
  %20 = alloca ptr, align 8
  %21 = alloca i32, align 4
  store ptr %0, ptr %10, align 8, !tbaa !3
  store ptr %1, ptr %11, align 8, !tbaa !51
  store ptr %2, ptr %12, align 8, !tbaa !3
  store i32 %3, ptr %13, align 4, !tbaa !26
  store i32 %4, ptr %14, align 4, !tbaa !26
  store i32 %5, ptr %15, align 4, !tbaa !26
  store i32 %6, ptr %16, align 4, !tbaa !26
  store i32 %7, ptr %17, align 4, !tbaa !26
  call void @llvm.lifetime.start.p0(i64 8, ptr %18) #12
  call void @llvm.lifetime.start.p0(i64 4, ptr %19) #12
  call void @llvm.lifetime.start.p0(i64 8, ptr %20) #12
  %22 = load i32, ptr %14, align 4, !tbaa !26
  %23 = load i32, ptr %13, align 4, !tbaa !26
  %24 = mul nsw i32 %22, %23
  %25 = load i32, ptr %17, align 4, !tbaa !26
  %26 = zext i32 %25 to i64
  %27 = getelementptr inbounds nuw [17 x i8], ptr @stbir__pixel_channels, i64 0, i64 %26
  %28 = load i8, ptr %27, align 1, !tbaa !12
  %29 = zext i8 %28 to i32
  %30 = mul nsw i32 %24, %29
  store i32 %30, ptr %19, align 4, !tbaa !26
  %31 = load i32, ptr %19, align 4, !tbaa !26
  %32 = icmp eq i32 %31, 0
  br i1 %32, label %33, label %34

33:                                               ; preds = %8
  store i32 0, ptr %9, align 4
  store i32 1, ptr %21, align 4
  br label %71

34:                                               ; preds = %8
  %35 = load i32, ptr %16, align 4, !tbaa !26
  %36 = icmp eq i32 %35, 0
  br i1 %36, label %37, label %39

37:                                               ; preds = %34
  %38 = load i32, ptr %19, align 4, !tbaa !26
  store i32 %38, ptr %16, align 4, !tbaa !26
  br label %39

39:                                               ; preds = %37, %34
  %40 = load i32, ptr %16, align 4, !tbaa !26
  %41 = load i32, ptr %19, align 4, !tbaa !26
  %42 = icmp slt i32 %40, %41
  br i1 %42, label %43, label %44

43:                                               ; preds = %39
  store i32 0, ptr %9, align 4
  store i32 1, ptr %21, align 4
  br label %71

44:                                               ; preds = %39
  %45 = load i32, ptr %16, align 4, !tbaa !26
  %46 = sext i32 %45 to i64
  %47 = load i32, ptr %15, align 4, !tbaa !26
  %48 = sext i32 %47 to i64
  %49 = mul i64 %46, %48
  store i64 %49, ptr %18, align 8, !tbaa !7
  %50 = load i64, ptr %18, align 8, !tbaa !7
  %51 = icmp eq i64 %50, 0
  br i1 %51, label %52, label %53

52:                                               ; preds = %44
  store i32 0, ptr %9, align 4
  store i32 1, ptr %21, align 4
  br label %71

53:                                               ; preds = %44
  %54 = load ptr, ptr %10, align 8, !tbaa !3
  store ptr null, ptr %54, align 8, !tbaa !3
  %55 = load i32, ptr %16, align 4, !tbaa !26
  %56 = load ptr, ptr %11, align 8, !tbaa !51
  store i32 %55, ptr %56, align 4, !tbaa !26
  %57 = load ptr, ptr %12, align 8, !tbaa !3
  %58 = icmp eq ptr %57, null
  br i1 %58, label %59, label %70

59:                                               ; preds = %53
  %60 = load i64, ptr %18, align 8, !tbaa !7
  %61 = call noalias ptr @malloc(i64 noundef %60) #13
  store ptr %61, ptr %20, align 8, !tbaa !3
  %62 = load ptr, ptr %20, align 8, !tbaa !3
  %63 = icmp eq ptr %62, null
  br i1 %63, label %64, label %65

64:                                               ; preds = %59
  store i32 0, ptr %9, align 4
  store i32 1, ptr %21, align 4
  br label %71

65:                                               ; preds = %59
  %66 = load ptr, ptr %20, align 8, !tbaa !3
  %67 = load ptr, ptr %10, align 8, !tbaa !3
  store ptr %66, ptr %67, align 8, !tbaa !3
  %68 = load i32, ptr %19, align 4, !tbaa !26
  %69 = load ptr, ptr %11, align 8, !tbaa !51
  store i32 %68, ptr %69, align 4, !tbaa !26
  br label %70

70:                                               ; preds = %65, %53
  store i32 1, ptr %9, align 4
  store i32 1, ptr %21, align 4
  br label %71

71:                                               ; preds = %70, %64, %52, %43, %33
  call void @llvm.lifetime.end.p0(i64 8, ptr %20) #12
  call void @llvm.lifetime.end.p0(i64 4, ptr %19) #12
  call void @llvm.lifetime.end.p0(i64 8, ptr %18) #12
  %72 = load i32, ptr %9, align 4
  ret i32 %72
}