; Function Attrs: mustprogress nofree nounwind willreturn memory(read, argmem: write, inaccessiblemem: readwrite) uwtable
define range(i32 0, 2) i32 @stbir__check_output_stuff(ptr noundef writeonly captures(none) %0, ptr noundef writeonly captures(none) %1, ptr noundef readnone captures(address_is_null) %2, i32 noundef %3, i32 noundef %4, i32 noundef %5, i32 noundef %6, i32 noundef %7) local_unnamed_addr #20 {
  %9 = mul nsw i32 %4, %3
  %10 = zext i32 %7 to i64
  %11 = getelementptr inbounds nuw [17 x i8], ptr @stbir__pixel_channels, i64 0, i64 %10
  %12 = load i8, ptr %11, align 1, !tbaa !4
  %13 = zext i8 %12 to i32
  %14 = mul nsw i32 %9, %13
  %15 = icmp eq i32 %14, 0
  br i1 %15, label %30, label %16

16:                                               ; preds = %8
  %17 = icmp eq i32 %6, 0
  %spec.select = select i1 %17, i32 %14, i32 %6
  %18 = icmp slt i32 %spec.select, %14
  br i1 %18, label %30, label %19

19:                                               ; preds = %16
  %20 = sext i32 %spec.select to i64
  %21 = sext i32 %5 to i64
  %22 = mul nsw i64 %20, %21
  %23 = icmp eq i32 %5, 0
  br i1 %23, label %30, label %24

24:                                               ; preds = %19
  store ptr null, ptr %0, align 8, !tbaa !42
  store i32 %spec.select, ptr %1, align 4, !tbaa !18
  %25 = icmp eq ptr %2, null
  br i1 %25, label %26, label %30

26:                                               ; preds = %24
  %27 = tail call noalias ptr @malloc(i64 noundef %22) #25
  %28 = icmp eq ptr %27, null
  br i1 %28, label %30, label %29

29:                                               ; preds = %26
  store ptr %27, ptr %0, align 8, !tbaa !42
  store i32 %14, ptr %1, align 4, !tbaa !18
  br label %30

30:                                               ; preds = %24, %29, %26, %19, %16, %8
  %.0 = phi i32 [ 0, %8 ], [ 0, %16 ], [ 0, %19 ], [ 0, %26 ], [ 1, %29 ], [ 1, %24 ]
  ret i32 %.0
}